ccopy_reg
_reconstructor
p0
(cCore.Base.ToolBasic
TestPlan
p1
c__builtin__
object
p2
Ntp3
Rp4
(dp5
S'group_list'
p6
(lp7
S'BruteForceSSH'
p8
aS'DoS'
p9
aS'GalileoHTTPFlood'
p10
aS'Ping'
p11
aS'PingB'
p12
asb.