(lp0
(S'_NetworkCloud'
p1
S'False'
p2
tp3
a(S'_IP'
p4
S'192.168.2.1'
p5
tp6
a(S'_Port'
p7
S'8000'
p8
tp9
a(S'_Scapy'
p10
S'false'
p11
tp12
a(S'_IP'
p13
S'192.168.1.21'
p14
tp15
a(S'_NumOfPings'
p16
S'5'
p17
tp18
a.